target datalayout = "e-m:e-p270:32:32-p271:32:32-p272:64:64-i64:64-i128:128-f80:128-n8:16:32:64-S128"
target triple = "x86_64-pc-linux-gnu"

%struct.timeval = type { i64, i64 }
%struct.fd_set = type { [16 x i64] }
%struct.per_transfer = type { ptr, ptr, ptr, ptr, ptr, i64, i64, i64, i64, %struct.timeval, %struct.timeval, ptr, i32, ptr, i32, %struct.ProgressData, %struct.OutStruct, %struct.OutStruct, %struct.OutStruct, %struct.HdrCbData, i64, i64, i64, i64, i64, i64, i64, i64, i8, i8, ptr, ptr, i8, i8, i8, i8, i8, i8 }
%struct.ProgressData = type { i32, i64, %struct.timeval, i32, ptr, i64, i32, i32, i32 }
%struct.OutStruct = type { ptr, i8, i8, i8, i8, ptr, i64, i64 }
%struct.HdrCbData = type { ptr, ptr, ptr, ptr, ptr, ptr, i8 }
%struct.OperationConfig = type { i8, ptr, ptr, ptr, ptr, ptr, ptr, i8, i8, i8, i64, i8, i8, i8, i8, i8, ptr, i8, ptr, i8, ptr, i64, ptr, %struct.dynbuf, ptr, ptr, i64, i64, i64, i64, ptr, ptr, ptr, ptr, i64, i64, i16, ptr, i64, i64, i64, i64, ptr, ptr, ptr, ptr, ptr, ptr, ptr, ptr, ptr, ptr, ptr, ptr, ptr, ptr, i32, ptr, ptr, ptr, ptr, i8, ptr, i8, i8, i8, i8, i8, i8, i8, i8, i8, i8, i8, i8, i8, i8, ptr, ptr, ptr, ptr, ptr, ptr, i64, ptr, ptr, ptr, ptr, ptr, ptr, ptr, ptr, ptr, ptr, ptr, ptr, ptr, ptr, ptr, ptr, ptr, ptr, ptr, ptr, ptr, ptr, ptr, ptr, ptr, ptr, ptr, ptr, ptr, ptr, i8, ptr, ptr, ptr, ptr, i64, i8, i8, i8, i8, i8, i8, i8, i8, i8, i8, i8, i8, i8, i8, i8, i8, i8, i8, i8, i8, ptr, ptr, ptr, ptr, i64, i64, i64, i64, i64, i32, i64, ptr, ptr, ptr, ptr, ptr, ptr, ptr, ptr, i32, i64, i64, i8, i8, i8, i8, i32, ptr, i8, i64, ptr, ptr, i8, i8, i64, i8, i8, i64, i64, ptr, ptr, i32, i64, i64, i8, i8, i8, i8, i8, i8, i8, i8, i64, i64, i8, i32, i8, i64, i8, i8, i8, i8, i8, i8, i8, i8, i8, ptr, i8, ptr, i8, i8, i8, i64, i8, i8, i8, i64, i8, ptr, i8, ptr, i32, i8, ptr, ptr, ptr, %struct.State, i8, i8, ptr, ptr, ptr }
%struct.dynbuf = type { ptr, i64, i64, i64 }
%struct.State = type { ptr, ptr, ptr, ptr, ptr, ptr, i64, i64, i64, i64 }

@.str = private unnamed_addr constant [75 x i8] c"File size larger in the end than when started. Dropping at least %ld bytes\00", align 1

; Function Attrs: nounwind uwtable
define dso_local i64 @tool_read_cb(ptr noundef %0, i64 noundef %1, i64 noundef %2, ptr noundef %3) #0 {
  %5 = alloca i64, align 8
  %6 = alloca ptr, align 8
  %7 = alloca i64, align 8
  %8 = alloca i64, align 8
  %9 = alloca ptr, align 8
  %10 = alloca i64, align 8
  %11 = alloca ptr, align 8
  %12 = alloca ptr, align 8
  %13 = alloca i32, align 4
  %14 = alloca %struct.timeval, align 8
  %15 = alloca i64, align 8
  %16 = alloca %struct.fd_set, align 8
  %17 = alloca %struct.timeval, align 8
  %18 = alloca i64, align 8
  %19 = alloca i32, align 4
  %20 = alloca ptr, align 8
  %21 = alloca i64, align 8
  store ptr %0, ptr %6, align 8, !tbaa !4
  store i64 %1, ptr %7, align 8, !tbaa !9
  store i64 %2, ptr %8, align 8, !tbaa !9
  store ptr %3, ptr %9, align 8, !tbaa !11
  call void @llvm.lifetime.start.p0(i64 8, ptr %10) #5
  store i64 0, ptr %10, align 8, !tbaa !9
  call void @llvm.lifetime.start.p0(i64 8, ptr %11) #5
  %22 = load ptr, ptr %9, align 8, !tbaa !11
  store ptr %22, ptr %11, align 8, !tbaa !12
  call void @llvm.lifetime.start.p0(i64 8, ptr %12) #5
  %23 = load ptr, ptr %11, align 8, !tbaa !12
  %24 = getelementptr inbounds nuw %struct.per_transfer, ptr %23, i32 0, i32 2
  %25 = load ptr, ptr %24, align 8, !tbaa !14
  store ptr %25, ptr %12, align 8, !tbaa !28
  %26 = load ptr, ptr %11, align 8, !tbaa !12
  %27 = getelementptr inbounds nuw %struct.per_transfer, ptr %26, i32 0, i32 26
  %28 = load i64, ptr %27, align 8, !tbaa !29
  %29 = icmp ne i64 %28, -1
  br i1 %29, label %30, label %39

30:                                               ; preds = %4
  %31 = load ptr, ptr %11, align 8, !tbaa !12
  %32 = getelementptr inbounds nuw %struct.per_transfer, ptr %31, i32 0, i32 27
  %33 = load i64, ptr %32, align 8, !tbaa !30
  %34 = load ptr, ptr %11, align 8, !tbaa !12
  %35 = getelementptr inbounds nuw %struct.per_transfer, ptr %34, i32 0, i32 26
  %36 = load i64, ptr %35, align 8, !tbaa !29
  %37 = icmp eq i64 %33, %36
  br i1 %37, label %38, label %39

38:                                               ; preds = %30
  store i64 0, ptr %5, align 8
  store i32 1, ptr %13, align 4
  br label %191

39:                                               ; preds = %30, %4
  %40 = load ptr, ptr %12, align 8, !tbaa !28
  %41 = getelementptr inbounds nuw %struct.OperationConfig, ptr %40, i32 0, i32 26
  %42 = load i64, ptr %41, align 8, !tbaa !31
  %43 = icmp ne i64 %42, 0
  br i1 %43, label %44, label %129

44:                                               ; preds = %39
  call void @llvm.lifetime.start.p0(i64 16, ptr %14) #5
  %45 = call { i64, i64 } @tvnow()
  %46 = getelementptr inbounds nuw { i64, i64 }, ptr %14, i32 0, i32 0
  %47 = extractvalue { i64, i64 } %45, 0
  store i64 %47, ptr %46, align 8
  %48 = getelementptr inbounds nuw { i64, i64 }, ptr %14, i32 0, i32 1
  %49 = extractvalue { i64, i64 } %45, 1
  store i64 %49, ptr %48, align 8
  call void @llvm.lifetime.start.p0(i64 8, ptr %15) #5
  %50 = load ptr, ptr %11, align 8, !tbaa !12
  %51 = getelementptr inbounds nuw %struct.per_transfer, ptr %50, i32 0, i32 9
  %52 = getelementptr inbounds nuw { i64, i64 }, ptr %14, i32 0, i32 0
  %53 = load i64, ptr %52, align 8
  %54 = getelementptr inbounds nuw { i64, i64 }, ptr %14, i32 0, i32 1
  %55 = load i64, ptr %54, align 8
  %56 = getelementptr inbounds nuw { i64, i64 }, ptr %51, i32 0, i32 0
  %57 = load i64, ptr %56, align 8
  %58 = getelementptr inbounds nuw { i64, i64 }, ptr %51, i32 0, i32 1
  %59 = load i64, ptr %58, align 8
  %60 = call i64 @tvdiff(i64 %53, i64 %55, i64 %57, i64 %59)
  store i64 %60, ptr %15, align 8, !tbaa !9
  %61 = load i64, ptr %15, align 8, !tbaa !9
  %62 = load ptr, ptr %12, align 8, !tbaa !28
  %63 = getelementptr inbounds nuw %struct.OperationConfig, ptr %62, i32 0, i32 26
  %64 = load i64, ptr %63, align 8, !tbaa !31
  %65 = icmp sgt i64 %61, %64
  br i1 %65, label %66, label %67

66:                                               ; preds = %44
  store i64 0, ptr %5, align 8
  store i32 1, ptr %13, align 4
  br label %126

67:                                               ; preds = %44
  call void @llvm.lifetime.start.p0(i64 128, ptr %16) #5
  call void @llvm.lifetime.start.p0(i64 16, ptr %17) #5
  call void @llvm.lifetime.start.p0(i64 8, ptr %18) #5
  %68 = load ptr, ptr %12, align 8, !tbaa !28
  %69 = getelementptr inbounds nuw %struct.OperationConfig, ptr %68, i32 0, i32 26
  %70 = load i64, ptr %69, align 8, !tbaa !31
  %71 = load i64, ptr %15, align 8, !tbaa !9
  %72 = sub nsw i64 %70, %71
  store i64 %72, ptr %18, align 8, !tbaa !9
  %73 = load i64, ptr %18, align 8, !tbaa !9
  %74 = sdiv i64 %73, 1000
  %75 = getelementptr inbounds nuw %struct.timeval, ptr %17, i32 0, i32 0
  store i64 %74, ptr %75, align 8, !tbaa !40
  %76 = load i64, ptr %18, align 8, !tbaa !9
  %77 = srem i64 %76, 1000
  %78 = mul nsw i64 %77, 1000
  %79 = trunc i64 %78 to i32
  %80 = sext i32 %79 to i64
  %81 = getelementptr inbounds nuw %struct.timeval, ptr %17, i32 0, i32 1
  store i64 %80, ptr %81, align 8, !tbaa !41
  br label %82

82:                                               ; preds = %67
  call void @llvm.lifetime.start.p0(i64 4, ptr %19) #5
  call void @llvm.lifetime.start.p0(i64 8, ptr %20) #5
  store ptr %16, ptr %20, align 8, !tbaa !11
  store i32 0, ptr %19, align 4, !tbaa !42
  br label %83

83:                                               ; preds = %93, %82
  %84 = load i32, ptr %19, align 4, !tbaa !42
  %85 = zext i32 %84 to i64
  %86 = icmp ult i64 %85, 16
  br i1 %86, label %87, label %96

87:                                               ; preds = %83
  %88 = load ptr, ptr %20, align 8, !tbaa !11
  %89 = getelementptr inbounds nuw %struct.fd_set, ptr %88, i32 0, i32 0
  %90 = load i32, ptr %19, align 4, !tbaa !42
  %91 = zext i32 %90 to i64
  %92 = getelementptr inbounds nuw [16 x i64], ptr %89, i64 0, i64 %91
  store i64 0, ptr %92, align 8, !tbaa !9
  br label %93

93:                                               ; preds = %87
  %94 = load i32, ptr %19, align 4, !tbaa !42
  %95 = add i32 %94, 1
  store i32 %95, ptr %19, align 4, !tbaa !42
  br label %83, !llvm.loop !43

96:                                               ; preds = %83
  call void @llvm.lifetime.end.p0(i64 8, ptr %20) #5
  call void @llvm.lifetime.end.p0(i64 4, ptr %19) #5
  br label %97

97:                                               ; preds = %96
  br label %98

98:                                               ; preds = %97
  %99 = load ptr, ptr %11, align 8, !tbaa !12
  %100 = getelementptr inbounds nuw %struct.per_transfer, ptr %99, i32 0, i32 14
  %101 = load i32, ptr %100, align 8, !tbaa !45
  %102 = srem i32 %101, 64
  %103 = zext i32 %102 to i64
  %104 = shl i64 1, %103
  %105 = getelementptr inbounds nuw %struct.fd_set, ptr %16, i32 0, i32 0
  %106 = load ptr, ptr %11, align 8, !tbaa !12
  %107 = getelementptr inbounds nuw %struct.per_transfer, ptr %106, i32 0, i32 14
  %108 = load i32, ptr %107, align 8, !tbaa !45
  %109 = sdiv i32 %108, 64
  %110 = sext i32 %109 to i64
  %111 = getelementptr inbounds [16 x i64], ptr %105, i64 0, i64 %110
  %112 = load i64, ptr %111, align 8, !tbaa !9
  %113 = or i64 %112, %104
  store i64 %113, ptr %111, align 8, !tbaa !9
  %114 = load ptr, ptr %11, align 8, !tbaa !12
  %115 = getelementptr inbounds nuw %struct.per_transfer, ptr %114, i32 0, i32 14
  %116 = load i32, ptr %115, align 8, !tbaa !45
  %117 = add nsw i32 %116, 1
  %118 = call i32 @select(i32 noundef %117, ptr noundef %16, ptr noundef null, ptr noundef null, ptr noundef %17)
  %119 = icmp ne i32 %118, 0
  br i1 %119, label %121, label %120

120:                                              ; preds = %98
  store i64 0, ptr %5, align 8
  store i32 1, ptr %13, align 4
  br label %122

121:                                              ; preds = %98
  store i32 0, ptr %13, align 4
  br label %122

122:                                              ; preds = %121, %120
  call void @llvm.lifetime.end.p0(i64 8, ptr %18) #5
  call void @llvm.lifetime.end.p0(i64 16, ptr %17) #5
  call void @llvm.lifetime.end.p0(i64 128, ptr %16) #5
  %123 = load i32, ptr %13, align 4
  switch i32 %123, label %126 [
    i32 0, label %124
  ]

124:                                              ; preds = %122
  br label %125

125:                                              ; preds = %124
  store i32 0, ptr %13, align 4
  br label %126

126:                                              ; preds = %125, %122, %66
  call void @llvm.lifetime.end.p0(i64 8, ptr %15) #5
  call void @llvm.lifetime.end.p0(i64 16, ptr %14) #5
  %127 = load i32, ptr %13, align 4
  switch i32 %127, label %191 [
    i32 0, label %128
  ]

128:                                              ; preds = %126
  br label %129

129:                                              ; preds = %128, %39
  %130 = load ptr, ptr %11, align 8, !tbaa !12
  %131 = getelementptr inbounds nuw %struct.per_transfer, ptr %130, i32 0, i32 14
  %132 = load i32, ptr %131, align 8, !tbaa !45
  %133 = load ptr, ptr %6, align 8, !tbaa !4
  %134 = load i64, ptr %7, align 8, !tbaa !9
  %135 = load i64, ptr %8, align 8, !tbaa !9
  %136 = mul i64 %134, %135
  %137 = call i64 @read(i32 noundef %132, ptr noundef %133, i64 noundef %136)
  store i64 %137, ptr %10, align 8, !tbaa !9
  %138 = load i64, ptr %10, align 8, !tbaa !9
  %139 = icmp slt i64 %138, 0
  br i1 %139, label %140, label %149

140:                                              ; preds = %129
  %141 = call ptr @__errno_location() #6
  %142 = load i32, ptr %141, align 4, !tbaa !42
  %143 = icmp eq i32 %142, 11
  br i1 %143, label %144, label %148

144:                                              ; preds = %140
  %145 = call ptr @__errno_location() #6
  store i32 0, ptr %145, align 4, !tbaa !42
  %146 = load ptr, ptr %12, align 8, !tbaa !28
  %147 = getelementptr inbounds nuw %struct.OperationConfig, ptr %146, i32 0, i32 122
  store i8 1, ptr %147, align 2, !tbaa !46
  store i64 268435457, ptr %5, align 8
  store i32 1, ptr %13, align 4
  br label %191

148:                                              ; preds = %140
  store i64 0, ptr %10, align 8, !tbaa !9
  br label %149

149:                                              ; preds = %148, %129
  %150 = load ptr, ptr %11, align 8, !tbaa !12
  %151 = getelementptr inbounds nuw %struct.per_transfer, ptr %150, i32 0, i32 26
  %152 = load i64, ptr %151, align 8, !tbaa !29
  %153 = icmp ne i64 %152, -1
  br i1 %153, label %154, label %187

154:                                              ; preds = %149
  %155 = load ptr, ptr %11, align 8, !tbaa !12
  %156 = getelementptr inbounds nuw %struct.per_transfer, ptr %155, i32 0, i32 27
  %157 = load i64, ptr %156, align 8, !tbaa !30
  %158 = load i64, ptr %10, align 8, !tbaa !9
  %159 = add nsw i64 %157, %158
  %160 = load ptr, ptr %11, align 8, !tbaa !12
  %161 = getelementptr inbounds nuw %struct.per_transfer, ptr %160, i32 0, i32 26
  %162 = load i64, ptr %161, align 8, !tbaa !29
  %163 = icmp sgt i64 %159, %162
  br i1 %163, label %164, label %187

164:                                              ; preds = %154
  call void @llvm.lifetime.start.p0(i64 8, ptr %21) #5
  %165 = load ptr, ptr %11, align 8, !tbaa !12
  %166 = getelementptr inbounds nuw %struct.per_transfer, ptr %165, i32 0, i32 27
  %167 = load i64, ptr %166, align 8, !tbaa !30
  %168 = load i64, ptr %10, align 8, !tbaa !9
  %169 = add nsw i64 %167, %168
  %170 = load ptr, ptr %11, align 8, !tbaa !12
  %171 = getelementptr inbounds nuw %struct.per_transfer, ptr %170, i32 0, i32 26
  %172 = load i64, ptr %171, align 8, !tbaa !29
  %173 = sub nsw i64 %169, %172
  store i64 %173, ptr %21, align 8, !tbaa !9
  %174 = load ptr, ptr %11, align 8, !tbaa !12
  %175 = getelementptr inbounds nuw %struct.per_transfer, ptr %174, i32 0, i32 2
  %176 = load ptr, ptr %175, align 8, !tbaa !14
  %177 = getelementptr inbounds nuw %struct.OperationConfig, ptr %176, i32 0, i32 224
  %178 = load ptr, ptr %177, align 8, !tbaa !47
  %179 = load i64, ptr %21, align 8, !tbaa !9
  call void (ptr, ptr, ...) @warnf(ptr noundef %178, ptr noundef @.str, i64 noundef %179)
  %180 = load ptr, ptr %11, align 8, !tbaa !12
  %181 = getelementptr inbounds nuw %struct.per_transfer, ptr %180, i32 0, i32 26
  %182 = load i64, ptr %181, align 8, !tbaa !29
  %183 = load ptr, ptr %11, align 8, !tbaa !12
  %184 = getelementptr inbounds nuw %struct.per_transfer, ptr %183, i32 0, i32 27
  %185 = load i64, ptr %184, align 8, !tbaa !30
  %186 = sub nsw i64 %182, %185
  store i64 %186, ptr %10, align 8, !tbaa !9
  call void @llvm.lifetime.end.p0(i64 8, ptr %21) #5
  br label %187

187:                                              ; preds = %164, %154, %149
  %188 = load ptr, ptr %12, align 8, !tbaa !28
  %189 = getelementptr inbounds nuw %struct.OperationConfig, ptr %188, i32 0, i32 122
  store i8 0, ptr %189, align 2, !tbaa !46
  %190 = load i64, ptr %10, align 8, !tbaa !9
  store i64 %190, ptr %5, align 8
  store i32 1, ptr %13, align 4
  br label %191

191:                                              ; preds = %187, %144, %126, %38
  call void @llvm.lifetime.end.p0(i64 8, ptr %12) #5
  call void @llvm.lifetime.end.p0(i64 8, ptr %11) #5
  call void @llvm.lifetime.end.p0(i64 8, ptr %10) #5
  %192 = load i64, ptr %5, align 8
  ret i64 %192
}