; Function Attrs: nounwind uwtable
define dso_local i64 @tool_read_cb(ptr noundef captures(none) %0, i64 noundef %1, i64 noundef %2, ptr noundef readonly captures(none) %3) local_unnamed_addr #0 {
  %5 = alloca %struct.fd_set, align 8
  %6 = alloca %struct.timeval, align 8
  %7 = getelementptr inbounds nuw i8, ptr %3, i64 16
  %8 = load ptr, ptr %7, align 8, !tbaa !4
  %9 = getelementptr inbounds nuw i8, ptr %3, i64 432
  %10 = load i64, ptr %9, align 8, !tbaa !24
  %.not = icmp eq i64 %10, -1
  br i1 %.not, label %15, label %11

11:                                               ; preds = %4
  %12 = getelementptr inbounds nuw i8, ptr %3, i64 440
  %13 = load i64, ptr %12, align 8, !tbaa !25
  %14 = icmp eq i64 %13, %10
  br i1 %14, label %.critedge, label %15

15:                                               ; preds = %11, %4
  %16 = getelementptr inbounds nuw i8, ptr %8, i64 184
  %17 = load i64, ptr %16, align 8, !tbaa !26
  %.not53 = icmp eq i64 %17, 0
  br i1 %.not53, label %47, label %18

18:                                               ; preds = %15
  %19 = tail call { i64, i64 } @tvnow() #6
  %20 = extractvalue { i64, i64 } %19, 0
  %21 = extractvalue { i64, i64 } %19, 1
  %22 = getelementptr inbounds nuw i8, ptr %3, i64 72
  %23 = load i64, ptr %22, align 8
  %24 = getelementptr inbounds nuw i8, ptr %3, i64 80
  %25 = load i64, ptr %24, align 8
  %26 = tail call i64 @tvdiff(i64 %20, i64 %21, i64 %23, i64 %25) #6
  %27 = load i64, ptr %16, align 8, !tbaa !26
  %28 = icmp sgt i64 %26, %27
  br i1 %28, label %.critedge, label %29

29:                                               ; preds = %18
  call void @llvm.lifetime.start.p0(i64 128, ptr nonnull %5) #6
  call void @llvm.lifetime.start.p0(i64 16, ptr nonnull %6) #6
  %30 = sub nsw i64 %27, %26
  %31 = sdiv i64 %30, 1000
  store i64 %31, ptr %6, align 8, !tbaa !35
  %32 = srem i64 %30, 1000
  %33 = mul nsw i64 %32, 1000
  %34 = getelementptr inbounds nuw i8, ptr %6, i64 8
  store i64 %33, ptr %34, align 8, !tbaa !36
  call void @llvm.memset.p0.i64(ptr noundef nonnull align 8 dereferenceable(128) %5, i8 0, i64 128, i1 false), !tbaa !37
  %35 = getelementptr inbounds nuw i8, ptr %3, i64 128
  %36 = load i32, ptr %35, align 8, !tbaa !38
  %37 = srem i32 %36, 64
  %38 = zext nneg i32 %37 to i64
  %39 = shl nuw i64 1, %38
  %40 = sdiv i32 %36, 64
  %41 = sext i32 %40 to i64
  %42 = getelementptr inbounds [16 x i64], ptr %5, i64 0, i64 %41
  %43 = load i64, ptr %42, align 8, !tbaa !37
  %44 = or i64 %39, %43
  store i64 %44, ptr %42, align 8, !tbaa !37
  %45 = add nsw i32 %36, 1
  %46 = call i32 @select(i32 noundef %45, ptr noundef nonnull %5, ptr noundef null, ptr noundef null, ptr noundef nonnull %6) #6
  %.not54.not = icmp eq i32 %46, 0
  call void @llvm.lifetime.end.p0(i64 16, ptr nonnull %6) #6
  call void @llvm.lifetime.end.p0(i64 128, ptr nonnull %5) #6
  br i1 %.not54.not, label %.critedge, label %47

47:                                               ; preds = %29, %15
  %48 = getelementptr inbounds nuw i8, ptr %3, i64 128
  %49 = load i32, ptr %48, align 8, !tbaa !38
  %50 = mul i64 %2, %1
  %51 = call i64 @read(i32 noundef %49, ptr noundef %0, i64 noundef %50) #6
  %52 = icmp slt i64 %51, 0
  br i1 %52, label %53, label %58

53:                                               ; preds = %47
  %54 = tail call ptr @__errno_location() #7
  %55 = load i32, ptr %54, align 4, !tbaa !39
  %56 = icmp eq i32 %55, 11
  br i1 %56, label %57, label %58

57:                                               ; preds = %53
  store i32 0, ptr %54, align 4, !tbaa !39
  br label %.critedge.sink.split

58:                                               ; preds = %53, %47
  %.042 = phi i64 [ %51, %47 ], [ 0, %53 ]
  %59 = load i64, ptr %9, align 8, !tbaa !24
  %.not55 = icmp eq i64 %59, -1
  br i1 %.not55, label %.critedge.sink.split, label %60

60:                                               ; preds = %58
  %61 = getelementptr inbounds nuw i8, ptr %3, i64 440
  %62 = load i64, ptr %61, align 8, !tbaa !25
  %63 = add nsw i64 %62, %.042
  %64 = icmp sgt i64 %63, %59
  br i1 %64, label %65, label %.critedge.sink.split

65:                                               ; preds = %60
  %66 = sub nsw i64 %63, %59
  %67 = load ptr, ptr %7, align 8, !tbaa !4
  %68 = getelementptr inbounds nuw i8, ptr %67, i64 1328
  %69 = load ptr, ptr %68, align 8, !tbaa !40
  call void (ptr, ptr, ...) @warnf(ptr noundef %69, ptr noundef nonnull @.str, i64 noundef %66) #6
  %70 = load i64, ptr %9, align 8, !tbaa !24
  %71 = load i64, ptr %61, align 8, !tbaa !25
  %72 = sub nsw i64 %70, %71
  br label %.critedge.sink.split

.critedge.sink.split:                             ; preds = %58, %60, %65, %57
  %.sink = phi i8 [ 1, %57 ], [ 0, %65 ], [ 0, %60 ], [ 0, %58 ]
  %.0.ph = phi i64 [ 268435457, %57 ], [ %72, %65 ], [ %.042, %60 ], [ %.042, %58 ]
  %73 = getelementptr inbounds nuw i8, ptr %8, i64 842
  store i8 %.sink, ptr %73, align 2, !tbaa !41
  br label %.critedge

.critedge:                                        ; preds = %.critedge.sink.split, %18, %11, %29
  %.0 = phi i64 [ 0, %29 ], [ 0, %11 ], [ 0, %18 ], [ %.0.ph, %.critedge.sink.split ]
  ret i64 %.0
}